target datalayout = "e-m:e-p270:32:32-p271:32:32-p272:64:64-i64:64-i128:128-f80:128-n8:16:32:64-S128"
target triple = "x86_64-pc-linux-gnu"

%struct._capture_file = type { ptr, i32, ptr, ptr, i8, i8, i8, i64, i16, i32, i32, i32, ptr, i32, i64, i32, i32, i32, i32, i8, i32, %struct.nstime_t, i32, ptr, ptr, ptr, i8, i8, i32, ptr, i8, i8, i8, i8, i8, i32, i32, i8, ptr, i32, i32, i8, %struct.packet_provider_data, i32, i32, %struct.epan_column_info, ptr, ptr, ptr, %struct.wtap_rec, %struct.Buffer, ptr, i64, i32 }
%struct.nstime_t = type { i64, i32 }
%struct.packet_provider_data = type { ptr, ptr, ptr, ptr, ptr, ptr }
%struct.epan_column_info = type { ptr, i32, ptr, ptr, ptr, %struct.col_expr_t, i8, ptr }
%struct.col_expr_t = type { ptr, ptr }
%struct.wtap_rec = type { i32, i32, i32, %struct.nstime_t, i32, %struct.nstime_t, i8, %union.anon, ptr, i8, %struct.Buffer, %struct.Buffer }
%union.anon = type { %struct.wtap_packet_header }
%struct.wtap_packet_header = type { i32, i32, i32, i32, %union.wtap_pseudo_header }
%union.wtap_pseudo_header = type { %struct.erf_mc_phdr }
%struct.erf_mc_phdr = type { %struct.erf_phdr, [16 x %struct.erf_ehdr], %union.anon.1 }
%struct.erf_phdr = type { i64, i8, i8, i16, i16, i16 }
%struct.erf_ehdr = type { i64 }
%union.anon.1 = type { i32 }
%struct.Buffer = type { ptr, i64, i64, i64 }
%struct._frame_data = type <{ i32, i32, i32, i32, i32, [4 x i8], i64, ptr, ptr, ptr, i8, i16, [5 x i8], %struct.nstime_t, %struct.nstime_t, i32, i32 }>
%struct.epan_dissect = type { ptr, ptr, ptr, %struct._packet_info }
%struct._packet_info = type { ptr, ptr, i32, i32, %struct.nstime_t, %struct.nstime_t, %struct.nstime_t, i8, ptr, ptr, ptr, ptr, %struct._address, %struct._address, %struct._address, %struct._address, %struct._address, %struct._address, i32, ptr, i8, [3 x i8], %struct.anon.3, i32, i32, i32, i32, ptr, i8, ptr, ptr, i16, i16, i32, i32, i16, i32, i32, ptr, ptr, ptr, i8, i8, i16, i16, i16, i32, i16, i16, ptr, ptr, ptr, ptr, ptr, i32, i32 }
%struct._address = type { i32, i32, ptr, ptr }
%struct.anon.3 = type { i8, [3 x i8] }

@cfile = hidden global %struct._capture_file zeroinitializer, align 8

; Function Attrs: null_pointer_is_valid sspstrong uwtable
define hidden ptr @sharkd_get_frame(i32 noundef %0) #0 {
  %2 = alloca i32, align 4
  store i32 %0, ptr %2, align 4
  %3 = load ptr, ptr getelementptr inbounds nuw (%struct.packet_provider_data, ptr getelementptr inbounds nuw (%struct._capture_file, ptr @cfile, i32 0, i32 42), i32 0, i32 4), align 8
  %4 = load i32, ptr %2, align 4
  %5 = call ptr @frame_data_sequence_find(ptr noundef %3, i32 noundef %4)
  ret ptr %5
}

; Function Attrs: null_pointer_is_valid sspstrong uwtable
define hidden i32 @sharkd_dissect_request(i32 noundef %0, i32 noundef %1, i32 noundef %2, ptr noundef %3, ptr noundef %4, i32 noundef %5, ptr noundef %6, ptr noundef %7, ptr noundef %8, ptr noundef %9) #0 {
  %11 = alloca i32, align 4
  %12 = alloca i32, align 4
  %13 = alloca i32, align 4
  %14 = alloca i32, align 4
  %15 = alloca ptr, align 8
  %16 = alloca ptr, align 8
  %17 = alloca i32, align 4
  %18 = alloca ptr, align 8
  %19 = alloca ptr, align 8
  %20 = alloca ptr, align 8
  %21 = alloca ptr, align 8
  %22 = alloca ptr, align 8
  %23 = alloca %struct.epan_dissect, align 8
  %24 = alloca i8, align 1
  %25 = alloca i32, align 4
  store i32 %0, ptr %12, align 4
  store i32 %1, ptr %13, align 4
  store i32 %2, ptr %14, align 4
  store ptr %3, ptr %15, align 8
  store ptr %4, ptr %16, align 8
  store i32 %5, ptr %17, align 4
  store ptr %6, ptr %18, align 8
  store ptr %7, ptr %19, align 8
  store ptr %8, ptr %20, align 8
  store ptr %9, ptr %21, align 8
  call void @llvm.lifetime.start.p0(i64 8, ptr %22) #5
  call void @llvm.lifetime.start.p0(i64 464, ptr %23) #5
  call void @llvm.lifetime.start.p0(i64 1, ptr %24) #5
  %26 = load i32, ptr %12, align 4
  %27 = call ptr @sharkd_get_frame(i32 noundef %26)
  store ptr %27, ptr %22, align 8
  %28 = load ptr, ptr %22, align 8
  %29 = icmp eq ptr %28, null
  br i1 %29, label %30, label %31

30:                                               ; preds = %10
  store i32 1, ptr %11, align 4
  store i32 1, ptr %25, align 4
  br label %139

31:                                               ; preds = %10
  %32 = load ptr, ptr getelementptr inbounds nuw (%struct._capture_file, ptr @cfile, i32 0, i32 42), align 8
  %33 = load ptr, ptr %22, align 8
  %34 = getelementptr inbounds nuw %struct._frame_data, ptr %33, i32 0, i32 6
  %35 = load i64, ptr %34, align 8
  %36 = load ptr, ptr %15, align 8
  %37 = load ptr, ptr %20, align 8
  %38 = load ptr, ptr %21, align 8
  %39 = call zeroext i1 @wtap_seek_read(ptr noundef %32, i64 noundef %35, ptr noundef %36, ptr noundef %37, ptr noundef %38)
  br i1 %39, label %47, label %40

40:                                               ; preds = %31
  %41 = load ptr, ptr %16, align 8
  %42 = icmp ne ptr %41, null
  br i1 %42, label %43, label %46

43:                                               ; preds = %40
  %44 = load ptr, ptr %16, align 8
  %45 = load ptr, ptr %22, align 8
  call void @col_fill_in_error(ptr noundef %44, ptr noundef %45, i1 noundef zeroext false, i1 noundef zeroext false)
  br label %46

46:                                               ; preds = %43, %40
  store i32 2, ptr %11, align 4
  store i32 1, ptr %25, align 4
  br label %139

47:                                               ; preds = %31
  %48 = load i32, ptr %17, align 4
  %49 = and i32 %48, 4
  %50 = icmp ne i32 %49, 0
  br i1 %50, label %65, label %51

51:                                               ; preds = %47
  %52 = load i32, ptr %17, align 4
  %53 = and i32 %52, 8
  %54 = icmp ne i32 %53, 0
  br i1 %54, label %55, label %57

55:                                               ; preds = %51
  %56 = call zeroext i1 @color_filters_used()
  br i1 %56, label %65, label %57

57:                                               ; preds = %55, %51
  %58 = load ptr, ptr %16, align 8
  %59 = icmp ne ptr %58, null
  br i1 %59, label %60, label %63

60:                                               ; preds = %57
  %61 = load ptr, ptr %16, align 8
  %62 = call zeroext i1 @have_custom_cols(ptr noundef %61)
  br label %63

63:                                               ; preds = %60, %57
  %64 = phi i1 [ false, %57 ], [ %62, %60 ]
  br label %65

65:                                               ; preds = %63, %55, %47
  %66 = phi i1 [ true, %55 ], [ true, %47 ], [ %64, %63 ]
  %67 = zext i1 %66 to i8
  store i8 %67, ptr %24, align 1
  %68 = load ptr, ptr @cfile, align 8
  %69 = load i8, ptr %24, align 1, !range !7, !noundef !8
  %70 = trunc i8 %69 to i1
  %71 = load i32, ptr %17, align 4
  %72 = and i32 %71, 4
  %73 = icmp ne i32 %72, 0
  call void @epan_dissect_init(ptr noundef %23, ptr noundef %68, i1 noundef zeroext %70, i1 noundef zeroext %73)
  %74 = load i32, ptr %17, align 4
  %75 = and i32 %74, 8
  %76 = icmp ne i32 %75, 0
  br i1 %76, label %77, label %83

77:                                               ; preds = %65
  call void @color_filters_prime_edt(ptr noundef %23)
  %78 = load ptr, ptr %22, align 8
  %79 = getelementptr inbounds nuw %struct._frame_data, ptr %78, i32 0, i32 11
  %80 = load i16, ptr %79, align 1
  %81 = and i16 %80, -513
  %82 = or i16 %81, 512
  store i16 %82, ptr %79, align 1
  br label %83

83:                                               ; preds = %77, %65
  %84 = load ptr, ptr %16, align 8
  %85 = icmp ne ptr %84, null
  br i1 %85, label %86, label %88

86:                                               ; preds = %83
  %87 = load ptr, ptr %16, align 8
  call void @col_custom_prime_edt(ptr noundef %23, ptr noundef %87)
  br label %88

88:                                               ; preds = %86, %83
  %89 = load i32, ptr %12, align 4
  %90 = load i32, ptr %13, align 4
  %91 = icmp eq i32 %89, %90
  %92 = zext i1 %91 to i32
  %93 = load ptr, ptr %22, align 8
  %94 = getelementptr inbounds nuw %struct._frame_data, ptr %93, i32 0, i32 11
  %95 = trunc i32 %92 to i16
  %96 = load i16, ptr %94, align 1
  %97 = and i16 %95, 1
  %98 = shl i16 %97, 5
  %99 = and i16 %96, -33
  %100 = or i16 %99, %98
  store i16 %100, ptr %94, align 1
  %101 = load i32, ptr %13, align 4
  %102 = load ptr, ptr %22, align 8
  %103 = getelementptr inbounds nuw %struct._frame_data, ptr %102, i32 0, i32 15
  store i32 %101, ptr %103, align 8
  %104 = load i32, ptr %14, align 4
  %105 = load ptr, ptr %22, align 8
  %106 = getelementptr inbounds nuw %struct._frame_data, ptr %105, i32 0, i32 16
  store i32 %104, ptr %106, align 4
  %107 = load i16, ptr getelementptr inbounds nuw (%struct._capture_file, ptr @cfile, i32 0, i32 8), align 8
  %108 = zext i16 %107 to i32
  %109 = load ptr, ptr %15, align 8
  %110 = load ptr, ptr %22, align 8
  %111 = load ptr, ptr %16, align 8
  call void @epan_dissect_run(ptr noundef %23, i32 noundef %108, ptr noundef %109, ptr noundef %110, ptr noundef %111)
  %112 = load ptr, ptr %16, align 8
  %113 = icmp ne ptr %112, null
  br i1 %113, label %114, label %115

114:                                              ; preds = %88
  call void @epan_dissect_fill_in_columns(ptr noundef %23, i1 noundef zeroext false, i1 noundef zeroext true)
  br label %115

115:                                              ; preds = %114, %88
  %116 = load ptr, ptr %18, align 8
  %117 = load i32, ptr %17, align 4
  %118 = and i32 %117, 4
  %119 = icmp ne i32 %118, 0
  br i1 %119, label %120, label %123

120:                                              ; preds = %115
  %121 = getelementptr inbounds nuw %struct.epan_dissect, ptr %23, i32 0, i32 2
  %122 = load ptr, ptr %121, align 8
  br label %124

123:                                              ; preds = %115
  br label %124

124:                                              ; preds = %123, %120
  %125 = phi ptr [ %122, %120 ], [ null, %123 ]
  %126 = load ptr, ptr %16, align 8
  %127 = load i32, ptr %17, align 4
  %128 = and i32 %127, 1
  %129 = icmp ne i32 %128, 0
  br i1 %129, label %130, label %134

130:                                              ; preds = %124
  %131 = getelementptr inbounds nuw %struct.epan_dissect, ptr %23, i32 0, i32 3
  %132 = getelementptr inbounds nuw %struct._packet_info, ptr %131, i32 0, i32 11
  %133 = load ptr, ptr %132, align 8
  br label %135

134:                                              ; preds = %124
  br label %135

135:                                              ; preds = %134, %130
  %136 = phi ptr [ %133, %130 ], [ null, %134 ]
  %137 = load ptr, ptr %19, align 8
  call void %116(ptr noundef %23, ptr noundef %125, ptr noundef %126, ptr noundef %136, ptr noundef %137)
  %138 = load ptr, ptr %15, align 8
  call void @wtap_rec_reset(ptr noundef %138)
  call void @epan_dissect_cleanup(ptr noundef %23)
  store i32 0, ptr %11, align 4
  store i32 1, ptr %25, align 4
  br label %139

139:                                              ; preds = %135, %46, %30
  call void @llvm.lifetime.end.p0(i64 1, ptr %24) #5
  call void @llvm.lifetime.end.p0(i64 464, ptr %23) #5
  call void @llvm.lifetime.end.p0(i64 8, ptr %22) #5
  %140 = load i32, ptr %11, align 4
  ret i32 %140
}