; Function Attrs: null_pointer_is_valid sspstrong uwtable
define hidden range(i32 0, 3) i32 @sharkd_dissect_request(i32 noundef %0, i32 noundef %1, i32 noundef %2, ptr noundef %3, ptr noundef %4, i32 noundef %5, ptr noundef readonly captures(none) %6, ptr noundef %7, ptr noundef %8, ptr noundef %9) local_unnamed_addr #0 {
  %11 = alloca %struct.epan_dissect, align 8
  call void @llvm.lifetime.start.p0(i64 464, ptr nonnull %11) #7
  %12 = load ptr, ptr getelementptr inbounds nuw (i8, ptr @cfile, i64 256), align 8
  %13 = tail call ptr @frame_data_sequence_find(ptr noundef %12, i32 noundef %0)
  %14 = icmp eq ptr %13, null
  br i1 %14, label %60, label %15

15:                                               ; preds = %10
  %16 = load ptr, ptr getelementptr inbounds nuw (i8, ptr @cfile, i64 224), align 8
  %17 = getelementptr inbounds nuw i8, ptr %13, i64 24
  %18 = load i64, ptr %17, align 8
  %19 = tail call zeroext i1 @wtap_seek_read(ptr noundef %16, i64 noundef %18, ptr noundef %3, ptr noundef %8, ptr noundef %9)
  br i1 %19, label %22, label %20

20:                                               ; preds = %15
  %.not = icmp eq ptr %4, null
  br i1 %.not, label %60, label %21

21:                                               ; preds = %20
  tail call void @col_fill_in_error(ptr noundef nonnull %4, ptr noundef nonnull %13, i1 noundef zeroext false, i1 noundef zeroext false)
  br label %60

22:                                               ; preds = %15
  %23 = and i32 %5, 4
  %24 = icmp ne i32 %23, 0
  %.pre = and i32 %5, 8
  br i1 %24, label %._crit_edge, label %25

25:                                               ; preds = %22
  %.not38 = icmp eq i32 %.pre, 0
  br i1 %.not38, label %29, label %26

26:                                               ; preds = %25
  %27 = tail call zeroext i1 @color_filters_used()
  br i1 %27, label %.thread, label %29

.thread:                                          ; preds = %26
  %28 = load ptr, ptr @cfile, align 8
  call void @epan_dissect_init(ptr noundef nonnull %11, ptr noundef %28, i1 noundef zeroext true, i1 noundef zeroext false)
  br label %34

29:                                               ; preds = %26, %25
  %.not39 = icmp eq ptr %4, null
  br i1 %.not39, label %._crit_edge, label %30

30:                                               ; preds = %29
  %31 = tail call zeroext i1 @have_custom_cols(ptr noundef nonnull %4)
  br label %._crit_edge

._crit_edge:                                      ; preds = %22, %29, %30
  %32 = phi i1 [ false, %29 ], [ %31, %30 ], [ true, %22 ]
  %33 = load ptr, ptr @cfile, align 8
  call void @epan_dissect_init(ptr noundef nonnull %11, ptr noundef %33, i1 noundef zeroext %32, i1 noundef zeroext %24)
  %.not40 = icmp eq i32 %.pre, 0
  br i1 %.not40, label %38, label %34

34:                                               ; preds = %.thread, %._crit_edge
  call void @color_filters_prime_edt(ptr noundef nonnull %11)
  %35 = getelementptr inbounds nuw i8, ptr %13, i64 57
  %36 = load i16, ptr %35, align 1
  %37 = or i16 %36, 512
  store i16 %37, ptr %35, align 1
  br label %38

38:                                               ; preds = %34, %._crit_edge
  %.not41 = icmp eq ptr %4, null
  br i1 %.not41, label %40, label %39

39:                                               ; preds = %38
  call void @col_custom_prime_edt(ptr noundef nonnull %11, ptr noundef nonnull %4)
  br label %40

40:                                               ; preds = %39, %38
  %41 = icmp eq i32 %0, %1
  %42 = getelementptr inbounds nuw i8, ptr %13, i64 57
  %43 = load i16, ptr %42, align 1
  %44 = select i1 %41, i16 32, i16 0
  %45 = and i16 %43, -33
  %46 = or disjoint i16 %45, %44
  store i16 %46, ptr %42, align 1
  %47 = getelementptr inbounds nuw i8, ptr %13, i64 96
  store i32 %1, ptr %47, align 8
  %48 = getelementptr inbounds nuw i8, ptr %13, i64 100
  store i32 %2, ptr %48, align 4
  %49 = load i16, ptr getelementptr inbounds nuw (i8, ptr @cfile, i64 48), align 8
  %50 = zext i16 %49 to i32
  call void @epan_dissect_run(ptr noundef nonnull %11, i32 noundef %50, ptr noundef %3, ptr noundef nonnull %13, ptr noundef %4)
  br i1 %.not41, label %52, label %51

51:                                               ; preds = %40
  call void @epan_dissect_fill_in_columns(ptr noundef nonnull %11, i1 noundef zeroext false, i1 noundef zeroext true)
  br label %52

52:                                               ; preds = %51, %40
  %53 = getelementptr inbounds nuw i8, ptr %11, i64 16
  %54 = load ptr, ptr %53, align 8
  %55 = select i1 %24, ptr %54, ptr null
  %56 = and i32 %5, 1
  %.not42 = icmp eq i32 %56, 0
  %57 = getelementptr inbounds nuw i8, ptr %11, i64 128
  %58 = load ptr, ptr %57, align 8
  %59 = select i1 %.not42, ptr null, ptr %58
  call void %6(ptr noundef nonnull %11, ptr noundef %55, ptr noundef %4, ptr noundef %59, ptr noundef %7)
  call void @wtap_rec_reset(ptr noundef %3)
  call void @epan_dissect_cleanup(ptr noundef nonnull %11)
  br label %60

60:                                               ; preds = %20, %21, %10, %52
  %.0 = phi i32 [ 0, %52 ], [ 1, %10 ], [ 2, %21 ], [ 2, %20 ]
  call void @llvm.lifetime.end.p0(i64 464, ptr nonnull %11) #7
  ret i32 %.0
}